target datalayout = "e-m:e-p270:32:32-p271:32:32-p272:64:64-i64:64-i128:128-f80:128-n8:16:32:64-S128"
target triple = "x86_64-pc-linux-gnu"

; Function Attrs: nounwind uwtable
define internal ptr @setclass(ptr noundef %0, ptr noundef %1) #0 {
  %3 = alloca ptr, align 8
  %4 = alloca ptr, align 8
  %5 = alloca ptr, align 8
  %6 = alloca i32, align 4
  %7 = alloca i32, align 4
  %8 = alloca i8, align 1
  %9 = alloca i32, align 4
  store ptr %0, ptr %4, align 8, !tbaa !17
  store ptr %1, ptr %5, align 8, !tbaa !54
  call void @llvm.lifetime.start.p0(i64 4, ptr %6) #6
  call void @llvm.lifetime.start.p0(i64 4, ptr %7) #6
  call void @llvm.lifetime.start.p0(i64 1, ptr %8) #6
  %10 = load ptr, ptr %4, align 8, !tbaa !17
  %11 = getelementptr inbounds nuw i8, ptr %10, i32 1
  store ptr %11, ptr %4, align 8, !tbaa !17
  %12 = load i8, ptr %10, align 1, !tbaa !12
  %13 = zext i8 %12 to i32
  store i32 %13, ptr %6, align 4, !tbaa !10
  %14 = icmp eq i32 %13, 94
  br i1 %14, label %15, label %20

15:                                               ; preds = %2
  store i8 0, ptr %8, align 1, !tbaa !38
  %16 = load ptr, ptr %4, align 8, !tbaa !17
  %17 = getelementptr inbounds nuw i8, ptr %16, i32 1
  store ptr %17, ptr %4, align 8, !tbaa !17
  %18 = load i8, ptr %16, align 1, !tbaa !12
  %19 = zext i8 %18 to i32
  store i32 %19, ptr %6, align 4, !tbaa !10
  br label %21

20:                                               ; preds = %2
  store i8 1, ptr %8, align 1, !tbaa !38
  br label %21

21:                                               ; preds = %20, %15
  store i32 0, ptr %7, align 4, !tbaa !10
  br label %22

22:                                               ; preds = %34, %21
  %23 = load i32, ptr %7, align 4, !tbaa !10
  %24 = icmp sle i32 %23, 255
  br i1 %24, label %25, label %37

25:                                               ; preds = %22
  %26 = load i8, ptr %8, align 1, !tbaa !38, !range !40, !noundef !41
  %27 = trunc i8 %26 to i1
  %28 = xor i1 %27, true
  %29 = load ptr, ptr %5, align 8, !tbaa !54
  %30 = load i32, ptr %7, align 4, !tbaa !10
  %31 = sext i32 %30 to i64
  %32 = getelementptr inbounds i8, ptr %29, i64 %31
  %33 = zext i1 %28 to i8
  store i8 %33, ptr %32, align 1, !tbaa !38
  br label %34

34:                                               ; preds = %25
  %35 = load i32, ptr %7, align 4, !tbaa !10
  %36 = add nsw i32 %35, 1
  store i32 %36, ptr %7, align 4, !tbaa !10
  br label %22, !llvm.loop !56

37:                                               ; preds = %22
  %38 = load i32, ptr %6, align 4, !tbaa !10
  %39 = icmp eq i32 %38, 93
  br i1 %39, label %43, label %40

40:                                               ; preds = %37
  %41 = load i32, ptr %6, align 4, !tbaa !10
  %42 = icmp eq i32 %41, 45
  br i1 %42, label %43, label %55

43:                                               ; preds = %40, %37
  %44 = load i8, ptr %8, align 1, !tbaa !38, !range !40, !noundef !41
  %45 = trunc i8 %44 to i1
  %46 = load ptr, ptr %5, align 8, !tbaa !54
  %47 = load i32, ptr %6, align 4, !tbaa !10
  %48 = sext i32 %47 to i64
  %49 = getelementptr inbounds i8, ptr %46, i64 %48
  %50 = zext i1 %45 to i8
  store i8 %50, ptr %49, align 1, !tbaa !38
  %51 = load ptr, ptr %4, align 8, !tbaa !17
  %52 = getelementptr inbounds nuw i8, ptr %51, i32 1
  store ptr %52, ptr %4, align 8, !tbaa !17
  %53 = load i8, ptr %51, align 1, !tbaa !12
  %54 = zext i8 %53 to i32
  store i32 %54, ptr %6, align 4, !tbaa !10
  br label %55

55:                                               ; preds = %43, %40
  br label %56

56:                                               ; preds = %118, %55
  %57 = load i32, ptr %6, align 4, !tbaa !10
  %58 = icmp ne i32 %57, 93
  br i1 %58, label %59, label %123

59:                                               ; preds = %56
  %60 = load i32, ptr %6, align 4, !tbaa !10
  %61 = icmp ne i32 %60, 0
  br i1 %61, label %65, label %62

62:                                               ; preds = %59
  %63 = load ptr, ptr %4, align 8, !tbaa !17
  %64 = getelementptr inbounds i8, ptr %63, i64 -1
  store ptr %64, ptr %3, align 8
  store i32 1, ptr %9, align 4
  br label %125

65:                                               ; preds = %59
  %66 = load i32, ptr %6, align 4, !tbaa !10
  %67 = icmp ne i32 %66, 45
  br i1 %67, label %84, label %68

68:                                               ; preds = %65
  %69 = load ptr, ptr %4, align 8, !tbaa !17
  %70 = getelementptr inbounds i8, ptr %69, i64 0
  %71 = load i8, ptr %70, align 1, !tbaa !12
  %72 = zext i8 %71 to i32
  %73 = icmp eq i32 %72, 93
  br i1 %73, label %84, label %74

74:                                               ; preds = %68
  %75 = load ptr, ptr %4, align 8, !tbaa !17
  %76 = getelementptr inbounds i8, ptr %75, i64 -2
  %77 = load i8, ptr %76, align 1, !tbaa !12
  %78 = zext i8 %77 to i32
  %79 = load ptr, ptr %4, align 8, !tbaa !17
  %80 = getelementptr inbounds i8, ptr %79, i64 0
  %81 = load i8, ptr %80, align 1, !tbaa !12
  %82 = zext i8 %81 to i32
  %83 = icmp sgt i32 %78, %82
  br i1 %83, label %84, label %92

84:                                               ; preds = %74, %68, %65
  %85 = load i8, ptr %8, align 1, !tbaa !38, !range !40, !noundef !41
  %86 = trunc i8 %85 to i1
  %87 = load ptr, ptr %5, align 8, !tbaa !54
  %88 = load i32, ptr %6, align 4, !tbaa !10
  %89 = sext i32 %88 to i64
  %90 = getelementptr inbounds i8, ptr %87, i64 %89
  %91 = zext i1 %86 to i8
  store i8 %91, ptr %90, align 1, !tbaa !38
  br label %117

92:                                               ; preds = %74
  %93 = load ptr, ptr %4, align 8, !tbaa !17
  %94 = getelementptr inbounds i8, ptr %93, i64 -2
  %95 = load i8, ptr %94, align 1, !tbaa !12
  %96 = zext i8 %95 to i32
  %97 = add nsw i32 %96, 1
  store i32 %97, ptr %7, align 4, !tbaa !10
  br label %98

98:                                               ; preds = %113, %92
  %99 = load i32, ptr %7, align 4, !tbaa !10
  %100 = load ptr, ptr %4, align 8, !tbaa !17
  %101 = getelementptr inbounds i8, ptr %100, i64 0
  %102 = load i8, ptr %101, align 1, !tbaa !12
  %103 = zext i8 %102 to i32
  %104 = icmp slt i32 %99, %103
  br i1 %104, label %105, label %116

105:                                              ; preds = %98
  %106 = load i8, ptr %8, align 1, !tbaa !38, !range !40, !noundef !41
  %107 = trunc i8 %106 to i1
  %108 = load ptr, ptr %5, align 8, !tbaa !54
  %109 = load i32, ptr %7, align 4, !tbaa !10
  %110 = sext i32 %109 to i64
  %111 = getelementptr inbounds i8, ptr %108, i64 %110
  %112 = zext i1 %107 to i8
  store i8 %112, ptr %111, align 1, !tbaa !38
  br label %113

113:                                              ; preds = %105
  %114 = load i32, ptr %7, align 4, !tbaa !10
  %115 = add nsw i32 %114, 1
  store i32 %115, ptr %7, align 4, !tbaa !10
  br label %98, !llvm.loop !57

116:                                              ; preds = %98
  br label %117

117:                                              ; preds = %116, %84
  br label %118

118:                                              ; preds = %117
  %119 = load ptr, ptr %4, align 8, !tbaa !17
  %120 = getelementptr inbounds nuw i8, ptr %119, i32 1
  store ptr %120, ptr %4, align 8, !tbaa !17
  %121 = load i8, ptr %119, align 1, !tbaa !12
  %122 = zext i8 %121 to i32
  store i32 %122, ptr %6, align 4, !tbaa !10
  br label %56, !llvm.loop !58

123:                                              ; preds = %56
  %124 = load ptr, ptr %4, align 8, !tbaa !17
  store ptr %124, ptr %3, align 8
  store i32 1, ptr %9, align 4
  br label %125

125:                                              ; preds = %123, %62
  call void @llvm.lifetime.end.p0(i64 1, ptr %8) #6
  call void @llvm.lifetime.end.p0(i64 4, ptr %7) #6
  call void @llvm.lifetime.end.p0(i64 4, ptr %6) #6
  %126 = load ptr, ptr %3, align 8
  ret ptr %126
}