; Function Attrs: nofree norecurse nosync nounwind memory(argmem: readwrite) uwtable
define internal fastcc nonnull ptr @setclass(ptr noundef readonly captures(ret: address, provenance) %0, ptr noundef nonnull writeonly captures(none) initializes((0, 256)) %1) unnamed_addr #5 {
  %3 = getelementptr inbounds nuw i8, ptr %0, i64 1
  %4 = load i8, ptr %0, align 1, !tbaa !3
  %5 = icmp ne i8 %4, 94
  br i1 %5, label %9, label %6

6:                                                ; preds = %2
  %7 = getelementptr inbounds nuw i8, ptr %0, i64 2
  %8 = load i8, ptr %3, align 1, !tbaa !3
  br label %9

9:                                                ; preds = %2, %6
  %.037 = phi ptr [ %7, %6 ], [ %3, %2 ]
  %.034.in = phi i8 [ %8, %6 ], [ %4, %2 ]
  %10 = xor i1 %5, true
  %11 = zext i1 %10 to i8
  tail call void @llvm.memset.p0.i64(ptr noundef nonnull align 1 dereferenceable(256) %1, i8 %11, i64 256, i1 false), !tbaa !44
  switch i8 %.034.in, label %._crit_edge [
    i8 93, label %12
    i8 45, label %12
  ]

._crit_edge:                                      ; preds = %9
  %.pre53 = zext i1 %5 to i8
  br label %18

12:                                               ; preds = %9, %9
  %13 = zext nneg i8 %.034.in to i64
  %14 = getelementptr inbounds nuw i8, ptr %1, i64 %13
  %15 = zext i1 %5 to i8
  store i8 %15, ptr %14, align 1, !tbaa !44
  %16 = getelementptr inbounds nuw i8, ptr %.037, i64 1
  %17 = load i8, ptr %.037, align 1, !tbaa !3
  br label %18

18:                                               ; preds = %._crit_edge, %12
  %.pre-phi = phi i8 [ %.pre53, %._crit_edge ], [ %15, %12 ]
  %.138 = phi ptr [ %.037, %._crit_edge ], [ %16, %12 ]
  %.135.in = phi i8 [ %.034.in, %._crit_edge ], [ %17, %12 ]
  br label %19

19:                                               ; preds = %.loopexit, %18
  %.239 = phi ptr [ %.138, %18 ], [ %43, %.loopexit ]
  %.2.in = phi i8 [ %.135.in, %18 ], [ %42, %.loopexit ]
  switch i8 %.2.in, label %29 [
    i8 93, label %.loopexit45
    i8 0, label %20
    i8 45, label %22
  ]

20:                                               ; preds = %19
  %21 = getelementptr inbounds i8, ptr %.239, i64 -1
  br label %.loopexit45

22:                                               ; preds = %19
  %23 = load i8, ptr %.239, align 1, !tbaa !3
  %24 = icmp eq i8 %23, 93
  br i1 %24, label %29, label %25

25:                                               ; preds = %22
  %26 = getelementptr inbounds i8, ptr %.239, i64 -2
  %27 = load i8, ptr %26, align 1, !tbaa !3
  %28 = icmp ugt i8 %27, %23
  br i1 %28, label %29, label %32

29:                                               ; preds = %19, %25, %22
  %30 = zext i8 %.2.in to i64
  %31 = getelementptr inbounds nuw i8, ptr %1, i64 %30
  store i8 %.pre-phi, ptr %31, align 1, !tbaa !44
  %.pre = load i8, ptr %.239, align 1, !tbaa !3
  br label %.loopexit

32:                                               ; preds = %25
  %33 = zext i8 %27 to i32
  %.148 = add nuw nsw i32 %33, 1
  %34 = zext i8 %23 to i32
  %35 = icmp samesign ult i32 %.148, %34
  br i1 %35, label %.lr.ph.preheader, label %.loopexit

.lr.ph.preheader:                                 ; preds = %32
  %36 = zext i8 %27 to i64
  %37 = add nuw nsw i64 %36, 1
  br label %.lr.ph

.lr.ph:                                           ; preds = %.lr.ph.preheader, %.lr.ph
  %indvars.iv = phi i64 [ %37, %.lr.ph.preheader ], [ %indvars.iv.next, %.lr.ph ]
  %38 = getelementptr inbounds nuw i8, ptr %1, i64 %indvars.iv
  store i8 %.pre-phi, ptr %38, align 1, !tbaa !44
  %indvars.iv.next = add nuw nsw i64 %indvars.iv, 1
  %39 = load i8, ptr %.239, align 1, !tbaa !3
  %40 = zext i8 %39 to i64
  %41 = icmp samesign ult i64 %indvars.iv.next, %40
  br i1 %41, label %.lr.ph, label %.loopexit, !llvm.loop !49

.loopexit:                                        ; preds = %.lr.ph, %32, %29
  %42 = phi i8 [ %23, %32 ], [ %.pre, %29 ], [ %39, %.lr.ph ]
  %43 = getelementptr inbounds nuw i8, ptr %.239, i64 1
  br label %19, !llvm.loop !50

.loopexit45:                                      ; preds = %19, %20
  %.036 = phi ptr [ %21, %20 ], [ %.239, %19 ]
  ret ptr %.036
}